target datalayout = "e-m:e-p270:32:32-p271:32:32-p272:64:64-i64:64-i128:128-f80:128-n8:16:32:64-S128"
target triple = "x86_64-pc-linux-gnu"

%struct.cLLog_private = type { i32, i32, [5 x i8], [5 x i8], [20 x i8], i32, i32, %struct.cCLLog_timeStamp_t, [20 x i8], i8, i8, i8, i8, i8, i8, i32, i32, i32, [7 x ptr], %struct.cCLLog_timeStamp_t }
%struct.cCLLog_timeStamp_t = type { i64, i16 }
%struct.wtap = type { ptr, ptr, i8, i32, i32, ptr, ptr, ptr, i32, ptr, ptr, ptr, ptr, ptr, ptr, ptr, ptr, ptr, ptr, i32, i32, ptr, ptr, ptr, ptr }
%struct.cCLLog_message_t = type { %struct.cCLLog_timeStamp_t, i32, i32, i32, i8, [8 x i8] }
%struct.wtap_rec = type { i32, i32, i32, %struct.nstime_t, i32, %struct.nstime_t, i8, %union.anon, ptr, i8, %struct.Buffer, %struct.Buffer }
%struct.nstime_t = type { i64, i32 }
%union.anon = type { %struct.wtap_packet_header }
%struct.wtap_packet_header = type { i32, i32, i32, i32, %union.wtap_pseudo_header }
%union.wtap_pseudo_header = type { %struct.erf_mc_phdr }
%struct.erf_mc_phdr = type { %struct.erf_phdr, [16 x %struct.erf_ehdr], %union.anon.1 }
%struct.erf_phdr = type { i64, i8, i8, i16, i16, i16 }
%struct.erf_ehdr = type { i64 }
%union.anon.1 = type { i32 }
%struct.Buffer = type { ptr, i64, i64, i64 }

; Function Attrs: alwaysinline nounwind
define internal ptr @memcpy.inline(ptr noalias %0, ptr noalias %1, i64 %2) #5 {
  %4 = alloca ptr, align 8
  %5 = alloca ptr, align 8
  %6 = alloca i64, align 8
  store ptr %0, ptr %4, align 8
  store ptr %1, ptr %5, align 8
  store i64 %2, ptr %6, align 8
  %7 = load ptr, ptr %4, align 8
  %8 = load ptr, ptr %5, align 8
  %9 = load i64, ptr %6, align 8
  %10 = load ptr, ptr %4, align 8
  %11 = call i64 @llvm.objectsize.i64.p0(ptr %10, i1 false, i1 true, i1 true)
  %12 = call ptr @__memcpy_chk(ptr noundef %7, ptr noundef %8, i64 noundef %9, i64 noundef %11) #13
  ret ptr %12
}

; Function Attrs: inlinehint nounwind null_pointer_is_valid sspstrong uwtable
define internal ptr @ws_buffer_start_ptr(ptr noundef %0) #12 {
  %2 = alloca ptr, align 8
  store ptr %0, ptr %2, align 8
  %3 = load ptr, ptr %2, align 8
  %4 = getelementptr inbounds nuw %struct.Buffer, ptr %3, i32 0, i32 0
  %5 = load ptr, ptr %4, align 8
  %6 = load ptr, ptr %2, align 8
  %7 = getelementptr inbounds nuw %struct.Buffer, ptr %6, i32 0, i32 2
  %8 = load i64, ptr %7, align 8
  %9 = getelementptr i8, ptr %5, i64 %8
  ret ptr %9
}

; Function Attrs: null_pointer_is_valid sspstrong uwtable
define internal zeroext i1 @parseLogLine(ptr noundef %0, ptr noundef %1, ptr noundef %2, ptr noundef %3, ptr noundef %4) #0 {
  %6 = alloca i1, align 1
  %7 = alloca ptr, align 8
  %8 = alloca ptr, align 8
  %9 = alloca ptr, align 8
  %10 = alloca ptr, align 8
  %11 = alloca ptr, align 8
  %12 = alloca ptr, align 8
  %13 = alloca i32, align 4
  %14 = alloca i32, align 4
  %15 = alloca i32, align 4
  %16 = alloca ptr, align 8
  store ptr %0, ptr %7, align 8
  store ptr %1, ptr %8, align 8
  store ptr %2, ptr %9, align 8
  store ptr %3, ptr %10, align 8
  store ptr %4, ptr %11, align 8
  call void @llvm.lifetime.start.p0(i64 8, ptr %12) #13
  %17 = load ptr, ptr %8, align 8
  store ptr %17, ptr %12, align 8
  call void @llvm.lifetime.start.p0(i64 4, ptr %13) #13
  store i32 0, ptr %13, align 4
  call void @llvm.lifetime.start.p0(i64 4, ptr %14) #13
  store i32 0, ptr %14, align 4
  br label %18

18:                                               ; preds = %73, %5
  %19 = load i32, ptr %13, align 4
  %20 = icmp ult i32 %19, 7
  br i1 %20, label %21, label %24

21:                                               ; preds = %18
  %22 = load i32, ptr %14, align 4
  %23 = icmp eq i32 %22, 0
  br label %24

24:                                               ; preds = %21, %18
  %25 = phi i1 [ false, %18 ], [ %23, %21 ]
  br i1 %25, label %27, label %26

26:                                               ; preds = %24
  store i32 2, ptr %15, align 4
  br label %76

27:                                               ; preds = %24
  call void @llvm.lifetime.start.p0(i64 8, ptr %16) #13
  %28 = load ptr, ptr %12, align 8
  %29 = load ptr, ptr %7, align 8
  %30 = getelementptr inbounds nuw %struct.cLLog_private, ptr %29, i32 0, i32 9
  %31 = load i8, ptr %30, align 4
  %32 = sext i8 %31 to i32
  %33 = call ptr @strchr(ptr noundef %28, i32 noundef %32) #16
  store ptr %33, ptr %16, align 8
  %34 = load ptr, ptr %16, align 8
  %35 = icmp eq ptr %34, null
  br i1 %35, label %36, label %39

36:                                               ; preds = %27
  %37 = load ptr, ptr %12, align 8
  %38 = call ptr @strchr(ptr noundef %37, i32 noundef 10) #16
  store ptr %38, ptr %16, align 8
  store i32 1, ptr %14, align 4
  br label %39

39:                                               ; preds = %36, %27
  %40 = load ptr, ptr %16, align 8
  %41 = icmp ne ptr %40, null
  br i1 %41, label %42, label %44

42:                                               ; preds = %39
  %43 = load ptr, ptr %16, align 8
  store i8 0, ptr %43, align 1
  br label %44

44:                                               ; preds = %42, %39
  %45 = load ptr, ptr %7, align 8
  %46 = getelementptr inbounds nuw %struct.cLLog_private, ptr %45, i32 0, i32 18
  %47 = load i32, ptr %13, align 4
  %48 = zext i32 %47 to i64
  %49 = getelementptr [7 x ptr], ptr %46, i64 0, i64 %48
  %50 = load ptr, ptr %49, align 8
  %51 = icmp ne ptr %50, null
  br i1 %51, label %52, label %67

52:                                               ; preds = %44
  %53 = load ptr, ptr %7, align 8
  %54 = getelementptr inbounds nuw %struct.cLLog_private, ptr %53, i32 0, i32 18
  %55 = load i32, ptr %13, align 4
  %56 = zext i32 %55 to i64
  %57 = getelementptr [7 x ptr], ptr %54, i64 0, i64 %56
  %58 = load ptr, ptr %57, align 8
  %59 = load ptr, ptr %7, align 8
  %60 = load ptr, ptr %12, align 8
  %61 = load ptr, ptr %9, align 8
  %62 = load ptr, ptr %10, align 8
  %63 = load ptr, ptr %11, align 8
  %64 = call zeroext i1 %58(ptr noundef %59, ptr noundef %60, ptr noundef %61, ptr noundef %62, ptr noundef %63)
  br i1 %64, label %66, label %65

65:                                               ; preds = %52
  store i1 false, ptr %6, align 1
  store i32 1, ptr %15, align 4
  br label %70

66:                                               ; preds = %52
  br label %67

67:                                               ; preds = %66, %44
  %68 = load ptr, ptr %16, align 8
  %69 = getelementptr i8, ptr %68, i64 1
  store ptr %69, ptr %12, align 8
  store i32 0, ptr %15, align 4
  br label %70

70:                                               ; preds = %67, %65
  call void @llvm.lifetime.end.p0(i64 8, ptr %16) #13
  %71 = load i32, ptr %15, align 4
  switch i32 %71, label %76 [
    i32 0, label %72
  ]

72:                                               ; preds = %70
  br label %73

73:                                               ; preds = %72
  %74 = load i32, ptr %13, align 4
  %75 = add i32 %74, 1
  store i32 %75, ptr %13, align 4
  br label %18, !llvm.loop !15

76:                                               ; preds = %70, %26
  call void @llvm.lifetime.end.p0(i64 4, ptr %14) #13
  call void @llvm.lifetime.end.p0(i64 4, ptr %13) #13
  %77 = load i32, ptr %15, align 4
  switch i32 %77, label %79 [
    i32 2, label %78
  ]

78:                                               ; preds = %76
  store i1 true, ptr %6, align 1
  store i32 1, ptr %15, align 4
  br label %79

79:                                               ; preds = %78, %76
  call void @llvm.lifetime.end.p0(i64 8, ptr %12) #13
  %80 = load i1, ptr %6, align 1
  ret i1 %80
}

; Function Attrs: alwaysinline nounwind
define internal ptr @memset.inline(ptr %0, i32 %1, i64 %2) #5 {
  %4 = alloca ptr, align 8
  %5 = alloca i32, align 4
  %6 = alloca i64, align 8
  store ptr %0, ptr %4, align 8
  store i32 %1, ptr %5, align 4
  store i64 %2, ptr %6, align 8
  %7 = load ptr, ptr %4, align 8
  %8 = load i32, ptr %5, align 4
  %9 = load i64, ptr %6, align 8
  %10 = load ptr, ptr %4, align 8
  %11 = call i64 @llvm.objectsize.i64.p0(ptr %10, i1 false, i1 true, i1 true)
  %12 = call ptr @__memset_chk(ptr noundef %7, i32 noundef %8, i64 noundef %9, i64 noundef %11) #13
  ret ptr %12
}

; Function Attrs: null_pointer_is_valid sspstrong uwtable
define internal zeroext i1 @cllog_read_common(ptr noundef %0, ptr noundef %1, ptr noundef %2, ptr noundef %3, ptr noundef %4) #0 {
  %6 = alloca i1, align 1
  %7 = alloca ptr, align 8
  %8 = alloca ptr, align 8
  %9 = alloca ptr, align 8
  %10 = alloca ptr, align 8
  %11 = alloca ptr, align 8
  %12 = alloca ptr, align 8
  %13 = alloca [200 x i8], align 16
  %14 = alloca %struct.cCLLog_message_t, align 8
  %15 = alloca ptr, align 8
  %16 = alloca i32, align 4
  store ptr %0, ptr %7, align 8
  store ptr %1, ptr %8, align 8
  store ptr %2, ptr %9, align 8
  store ptr %3, ptr %10, align 8
  store ptr %4, ptr %11, align 8
  call void @llvm.lifetime.start.p0(i64 8, ptr %12) #13
  %17 = load ptr, ptr %7, align 8
  %18 = getelementptr inbounds nuw %struct.wtap, ptr %17, i32 0, i32 13
  %19 = load ptr, ptr %18, align 8
  store ptr %19, ptr %12, align 8
  call void @llvm.lifetime.start.p0(i64 200, ptr %13) #13
  call void @llvm.lifetime.start.p0(i64 40, ptr %14) #13
  call void @llvm.lifetime.start.p0(i64 8, ptr %15) #13
  %20 = getelementptr inbounds [200 x i8], ptr %13, i64 0, i64 0
  %21 = load ptr, ptr %8, align 8
  %22 = call ptr @file_gets(ptr noundef %20, i32 noundef 200, ptr noundef %21)
  %23 = icmp eq ptr %22, null
  br i1 %23, label %24, label %29

24:                                               ; preds = %5
  %25 = load ptr, ptr %8, align 8
  %26 = load ptr, ptr %11, align 8
  %27 = call i32 @file_error(ptr noundef %25, ptr noundef %26)
  %28 = load ptr, ptr %10, align 8
  store i32 %27, ptr %28, align 4
  store i1 false, ptr %6, align 1
  store i32 1, ptr %16, align 4
  br label %173

29:                                               ; preds = %5
  %30 = call ptr @memset.inline(ptr noundef %14, i32 noundef 0, i64 noundef 40) #13
  %31 = load ptr, ptr %12, align 8
  %32 = getelementptr inbounds [200 x i8], ptr %13, i64 0, i64 0
  %33 = load ptr, ptr %10, align 8
  %34 = load ptr, ptr %11, align 8
  %35 = call zeroext i1 @parseLogLine(ptr noundef %31, ptr noundef %32, ptr noundef %14, ptr noundef %33, ptr noundef %34)
  br i1 %35, label %37, label %36

36:                                               ; preds = %29
  store i1 false, ptr %6, align 1
  store i32 1, ptr %16, align 4
  br label %173

37:                                               ; preds = %29
  %38 = load ptr, ptr %9, align 8
  %39 = getelementptr inbounds nuw %struct.wtap_rec, ptr %38, i32 0, i32 0
  store i32 0, ptr %39, align 8
  %40 = call ptr @wtap_block_create(i32 noundef 5)
  %41 = load ptr, ptr %9, align 8
  %42 = getelementptr inbounds nuw %struct.wtap_rec, ptr %41, i32 0, i32 8
  store ptr %40, ptr %42, align 8
  %43 = load ptr, ptr %9, align 8
  %44 = getelementptr inbounds nuw %struct.wtap_rec, ptr %43, i32 0, i32 1
  store i32 1, ptr %44, align 4
  %45 = getelementptr inbounds nuw %struct.cCLLog_message_t, ptr %14, i32 0, i32 0
  %46 = getelementptr inbounds nuw %struct.cCLLog_timeStamp_t, ptr %45, i32 0, i32 0
  %47 = load i64, ptr %46, align 8
  %48 = load ptr, ptr %9, align 8
  %49 = getelementptr inbounds nuw %struct.wtap_rec, ptr %48, i32 0, i32 3
  %50 = getelementptr inbounds nuw %struct.nstime_t, ptr %49, i32 0, i32 0
  store i64 %47, ptr %50, align 8
  %51 = getelementptr inbounds nuw %struct.cCLLog_message_t, ptr %14, i32 0, i32 0
  %52 = getelementptr inbounds nuw %struct.cCLLog_timeStamp_t, ptr %51, i32 0, i32 1
  %53 = load i16, ptr %52, align 8
  %54 = zext i16 %53 to i32
  %55 = mul i32 %54, 1000
  %56 = mul i32 %55, 1000
  %57 = load ptr, ptr %9, align 8
  %58 = getelementptr inbounds nuw %struct.wtap_rec, ptr %57, i32 0, i32 3
  %59 = getelementptr inbounds nuw %struct.nstime_t, ptr %58, i32 0, i32 1
  store i32 %56, ptr %59, align 8
  %60 = getelementptr inbounds nuw %struct.cCLLog_message_t, ptr %14, i32 0, i32 4
  %61 = load i8, ptr %60, align 4
  %62 = zext i8 %61 to i32
  %63 = add i32 8, %62
  %64 = load ptr, ptr %9, align 8
  %65 = getelementptr inbounds nuw %struct.wtap_rec, ptr %64, i32 0, i32 7
  %66 = getelementptr inbounds nuw %struct.wtap_packet_header, ptr %65, i32 0, i32 0
  store i32 %63, ptr %66, align 8
  %67 = getelementptr inbounds nuw %struct.cCLLog_message_t, ptr %14, i32 0, i32 4
  %68 = load i8, ptr %67, align 4
  %69 = zext i8 %68 to i32
  %70 = add i32 8, %69
  %71 = load ptr, ptr %9, align 8
  %72 = getelementptr inbounds nuw %struct.wtap_rec, ptr %71, i32 0, i32 7
  %73 = getelementptr inbounds nuw %struct.wtap_packet_header, ptr %72, i32 0, i32 1
  store i32 %70, ptr %73, align 4
  %74 = getelementptr inbounds nuw %struct.cCLLog_message_t, ptr %14, i32 0, i32 2
  %75 = load i32, ptr %74, align 4
  %76 = icmp eq i32 %75, 7
  br i1 %76, label %81, label %77

77:                                               ; preds = %37
  %78 = getelementptr inbounds nuw %struct.cCLLog_message_t, ptr %14, i32 0, i32 2
  %79 = load i32, ptr %78, align 4
  %80 = icmp eq i32 %79, 8
  br i1 %80, label %81, label %86

81:                                               ; preds = %77, %37
  %82 = load ptr, ptr %9, align 8
  %83 = getelementptr inbounds nuw %struct.wtap_rec, ptr %82, i32 0, i32 8
  %84 = load ptr, ptr %83, align 8
  %85 = call i32 @wtap_block_add_uint32_option(ptr noundef %84, i32 noundef 2, i32 noundef 2)
  br label %100

86:                                               ; preds = %77
  %87 = getelementptr inbounds nuw %struct.cCLLog_message_t, ptr %14, i32 0, i32 2
  %88 = load i32, ptr %87, align 4
  %89 = icmp eq i32 %88, 0
  br i1 %89, label %94, label %90

90:                                               ; preds = %86
  %91 = getelementptr inbounds nuw %struct.cCLLog_message_t, ptr %14, i32 0, i32 2
  %92 = load i32, ptr %91, align 4
  %93 = icmp eq i32 %92, 1
  br i1 %93, label %94, label %99

94:                                               ; preds = %90, %86
  %95 = load ptr, ptr %9, align 8
  %96 = getelementptr inbounds nuw %struct.wtap_rec, ptr %95, i32 0, i32 8
  %97 = load ptr, ptr %96, align 8
  %98 = call i32 @wtap_block_add_uint32_option(ptr noundef %97, i32 noundef 2, i32 noundef 1)
  br label %99

99:                                               ; preds = %94, %90
  br label %100

100:                                              ; preds = %99, %81
  %101 = load ptr, ptr %9, align 8
  %102 = getelementptr inbounds nuw %struct.wtap_rec, ptr %101, i32 0, i32 11
  %103 = load ptr, ptr %9, align 8
  %104 = getelementptr inbounds nuw %struct.wtap_rec, ptr %103, i32 0, i32 7
  %105 = getelementptr inbounds nuw %struct.wtap_packet_header, ptr %104, i32 0, i32 0
  %106 = load i32, ptr %105, align 8
  %107 = zext i32 %106 to i64
  call void @ws_buffer_assure_space(ptr noundef %102, i64 noundef %107)
  %108 = load ptr, ptr %9, align 8
  %109 = getelementptr inbounds nuw %struct.wtap_rec, ptr %108, i32 0, i32 11
  %110 = call ptr @ws_buffer_start_ptr(ptr noundef %109)
  store ptr %110, ptr %15, align 8
  %111 = getelementptr inbounds nuw %struct.cCLLog_message_t, ptr %14, i32 0, i32 3
  %112 = load i32, ptr %111, align 8
  %113 = lshr i32 %112, 24
  %114 = trunc i32 %113 to i8
  %115 = load ptr, ptr %15, align 8
  %116 = getelementptr i8, ptr %115, i64 0
  store i8 %114, ptr %116, align 1
  %117 = getelementptr inbounds nuw %struct.cCLLog_message_t, ptr %14, i32 0, i32 3
  %118 = load i32, ptr %117, align 8
  %119 = lshr i32 %118, 16
  %120 = trunc i32 %119 to i8
  %121 = load ptr, ptr %15, align 8
  %122 = getelementptr i8, ptr %121, i64 1
  store i8 %120, ptr %122, align 1
  %123 = getelementptr inbounds nuw %struct.cCLLog_message_t, ptr %14, i32 0, i32 3
  %124 = load i32, ptr %123, align 8
  %125 = lshr i32 %124, 8
  %126 = trunc i32 %125 to i8
  %127 = load ptr, ptr %15, align 8
  %128 = getelementptr i8, ptr %127, i64 2
  store i8 %126, ptr %128, align 1
  %129 = getelementptr inbounds nuw %struct.cCLLog_message_t, ptr %14, i32 0, i32 3
  %130 = load i32, ptr %129, align 8
  %131 = lshr i32 %130, 0
  %132 = trunc i32 %131 to i8
  %133 = load ptr, ptr %15, align 8
  %134 = getelementptr i8, ptr %133, i64 3
  store i8 %132, ptr %134, align 1
  %135 = getelementptr inbounds nuw %struct.cCLLog_message_t, ptr %14, i32 0, i32 4
  %136 = load i8, ptr %135, align 4
  %137 = load ptr, ptr %15, align 8
  %138 = getelementptr i8, ptr %137, i64 4
  store i8 %136, ptr %138, align 1
  %139 = load ptr, ptr %15, align 8
  %140 = getelementptr i8, ptr %139, i64 5
  store i8 0, ptr %140, align 1
  %141 = load ptr, ptr %15, align 8
  %142 = getelementptr i8, ptr %141, i64 6
  store i8 0, ptr %142, align 1
  %143 = load ptr, ptr %15, align 8
  %144 = getelementptr i8, ptr %143, i64 7
  store i8 0, ptr %144, align 1
  %145 = getelementptr inbounds nuw %struct.cCLLog_message_t, ptr %14, i32 0, i32 2
  %146 = load i32, ptr %145, align 4
  %147 = icmp eq i32 %146, 8
  br i1 %147, label %157, label %148

148:                                              ; preds = %100
  %149 = getelementptr inbounds nuw %struct.cCLLog_message_t, ptr %14, i32 0, i32 2
  %150 = load i32, ptr %149, align 4
  %151 = icmp eq i32 %150, 1
  br i1 %151, label %157, label %152

152:                                              ; preds = %148
  %153 = getelementptr inbounds nuw %struct.cCLLog_message_t, ptr %14, i32 0, i32 3
  %154 = load i32, ptr %153, align 8
  %155 = and i32 %154, 536870911
  %156 = icmp ugt i32 %155, 2047
  br i1 %156, label %157, label %164

157:                                              ; preds = %152, %148, %100
  %158 = load ptr, ptr %15, align 8
  %159 = getelementptr i8, ptr %158, i64 0
  %160 = load i8, ptr %159, align 1
  %161 = zext i8 %160 to i32
  %162 = or i32 %161, 128
  %163 = trunc i32 %162 to i8
  store i8 %163, ptr %159, align 1
  br label %164

164:                                              ; preds = %157, %152
  %165 = load ptr, ptr %15, align 8
  %166 = getelementptr i8, ptr %165, i64 8
  %167 = getelementptr inbounds nuw %struct.cCLLog_message_t, ptr %14, i32 0, i32 5
  %168 = getelementptr inbounds [8 x i8], ptr %167, i64 0, i64 0
  %169 = getelementptr inbounds nuw %struct.cCLLog_message_t, ptr %14, i32 0, i32 4
  %170 = load i8, ptr %169, align 4
  %171 = zext i8 %170 to i64
  %172 = call ptr @memcpy.inline(ptr noundef %166, ptr noundef %168, i64 noundef %171) #13
  store i1 true, ptr %6, align 1
  store i32 1, ptr %16, align 4
  br label %173

173:                                              ; preds = %164, %36, %24
  call void @llvm.lifetime.end.p0(i64 8, ptr %15) #13
  call void @llvm.lifetime.end.p0(i64 40, ptr %14) #13
  call void @llvm.lifetime.end.p0(i64 200, ptr %13) #13
  call void @llvm.lifetime.end.p0(i64 8, ptr %12) #13
  %174 = load i1, ptr %6, align 1
  ret i1 %174
}