; Function Attrs: null_pointer_is_valid sspstrong uwtable
define internal fastcc noundef zeroext i1 @cllog_read_common(ptr %.96.val, ptr noundef %0, ptr noundef %1, ptr noundef %2, ptr noundef %3) unnamed_addr #0 {
  %5 = alloca [200 x i8], align 16
  %6 = alloca %struct.cCLLog_message_t, align 8
  call void @llvm.lifetime.start.p0(i64 200, ptr nonnull %5) #10
  call void @llvm.lifetime.start.p0(i64 40, ptr nonnull %6) #10
  %7 = call ptr @file_gets(ptr noundef nonnull %5, i32 noundef 200, ptr noundef %0)
  %8 = icmp eq ptr %7, null
  br i1 %8, label %9, label %11

9:                                                ; preds = %4
  %10 = call i32 @file_error(ptr noundef %0, ptr noundef %3)
  store i32 %10, ptr %2, align 4
  br label %parseLogLine.exit

11:                                               ; preds = %4
  call void @llvm.memset.p0.i64(ptr noundef nonnull align 8 dereferenceable(40) %6, i8 noundef 0, i64 noundef 40, i1 noundef false) #10
  %12 = getelementptr inbounds nuw i8, ptr %.96.val, i64 84
  %13 = getelementptr inbounds nuw i8, ptr %.96.val, i64 104
  br label %14

14:                                               ; preds = %26, %11
  %indvars.iv.i = phi i64 [ 0, %11 ], [ %indvars.iv.next.i, %26 ]
  %.02748.i = phi ptr [ %5, %11 ], [ %27, %26 ]
  %15 = load i8, ptr %12, align 4
  %16 = sext i8 %15 to i32
  %17 = call ptr @strchr(ptr noundef %.02748.i, i32 noundef %16) #12
  %18 = icmp eq ptr %17, null
  br i1 %18, label %19, label %.thread.i

19:                                               ; preds = %14
  %20 = call ptr @strchr(ptr noundef %.02748.i, i32 noundef 10) #12
  %.not.i = icmp eq ptr %20, null
  br i1 %.not.i, label %21, label %.thread.i

.thread.i:                                        ; preds = %19, %14
  %.042.i = phi ptr [ %20, %19 ], [ %17, %14 ]
  store i8 0, ptr %.042.i, align 1
  br label %21

21:                                               ; preds = %.thread.i, %19
  %.043.i = phi ptr [ %.042.i, %.thread.i ], [ null, %19 ]
  %22 = getelementptr [7 x ptr], ptr %13, i64 0, i64 %indvars.iv.i
  %23 = load ptr, ptr %22, align 8
  %.not33.i = icmp eq ptr %23, null
  br i1 %.not33.i, label %26, label %24

24:                                               ; preds = %21
  %25 = call zeroext i1 %23(ptr noundef %.96.val, ptr noundef %.02748.i, ptr noundef nonnull %6, ptr noundef %2, ptr noundef %3)
  br i1 %25, label %26, label %parseLogLine.exit

26:                                               ; preds = %24, %21
  %27 = getelementptr i8, ptr %.043.i, i64 1
  %indvars.iv.next.i = add nuw nsw i64 %indvars.iv.i, 1
  %28 = icmp samesign ugt i64 %indvars.iv.i, 5
  %.not36.i = or i1 %28, %18
  br i1 %.not36.i, label %29, label %14, !llvm.loop !28

29:                                               ; preds = %26
  store i32 0, ptr %1, align 8
  %30 = call ptr @wtap_block_create(i32 noundef 5)
  %31 = getelementptr inbounds nuw i8, ptr %1, i64 232
  store ptr %30, ptr %31, align 8
  %32 = getelementptr inbounds nuw i8, ptr %1, i64 4
  store i32 1, ptr %32, align 4
  %33 = load i64, ptr %6, align 8
  %34 = getelementptr inbounds nuw i8, ptr %1, i64 16
  store i64 %33, ptr %34, align 8
  %35 = getelementptr inbounds nuw i8, ptr %6, i64 8
  %36 = load i16, ptr %35, align 8
  %37 = zext i16 %36 to i32
  %38 = mul i32 %37, 1000000
  %39 = getelementptr inbounds nuw i8, ptr %1, i64 24
  store i32 %38, ptr %39, align 8
  %40 = getelementptr inbounds nuw i8, ptr %6, i64 28
  %41 = load i8, ptr %40, align 4
  %42 = zext i8 %41 to i32
  %43 = add nuw nsw i32 %42, 8
  %44 = getelementptr inbounds nuw i8, ptr %1, i64 64
  store i32 %43, ptr %44, align 8
  %45 = getelementptr inbounds nuw i8, ptr %1, i64 68
  store i32 %43, ptr %45, align 4
  %46 = getelementptr inbounds nuw i8, ptr %6, i64 20
  %47 = load i32, ptr %46, align 4
  %48 = add i32 %47, -7
  %or.cond = icmp ult i32 %48, 2
  br i1 %or.cond, label %.sink.split, label %49

49:                                               ; preds = %29
  %or.cond5 = icmp ult i32 %47, 2
  br i1 %or.cond5, label %.sink.split, label %51

.sink.split:                                      ; preds = %49, %29
  %.sink = phi i32 [ 2, %29 ], [ 1, %49 ]
  %50 = call i32 @wtap_block_add_uint32_option(ptr noundef %30, i32 noundef 2, i32 noundef %.sink)
  br label %51

51:                                               ; preds = %.sink.split, %49
  %52 = getelementptr inbounds nuw i8, ptr %1, i64 280
  %53 = load i32, ptr %44, align 8
  %54 = zext i32 %53 to i64
  call void @ws_buffer_assure_space(ptr noundef nonnull %52, i64 noundef %54)
  %.val = load ptr, ptr %52, align 8
  %55 = getelementptr i8, ptr %1, i64 296
  %.val40 = load i64, ptr %55, align 8
  %56 = getelementptr i8, ptr %.val, i64 %.val40
  %57 = getelementptr inbounds nuw i8, ptr %6, i64 24
  %58 = load i32, ptr %57, align 8
  %59 = lshr i32 %58, 24
  %60 = trunc nuw i32 %59 to i8
  store i8 %60, ptr %56, align 1
  %61 = load i32, ptr %57, align 8
  %62 = lshr i32 %61, 16
  %63 = trunc i32 %62 to i8
  %64 = getelementptr i8, ptr %56, i64 1
  store i8 %63, ptr %64, align 1
  %65 = load i32, ptr %57, align 8
  %66 = lshr i32 %65, 8
  %67 = trunc i32 %66 to i8
  %68 = getelementptr i8, ptr %56, i64 2
  store i8 %67, ptr %68, align 1
  %69 = load i32, ptr %57, align 8
  %70 = trunc i32 %69 to i8
  %71 = getelementptr i8, ptr %56, i64 3
  store i8 %70, ptr %71, align 1
  %72 = load i8, ptr %40, align 4
  %73 = getelementptr i8, ptr %56, i64 4
  store i8 %72, ptr %73, align 1
  %74 = getelementptr i8, ptr %56, i64 5
  store i8 0, ptr %74, align 1
  %75 = getelementptr i8, ptr %56, i64 6
  store i8 0, ptr %75, align 1
  %76 = getelementptr i8, ptr %56, i64 7
  store i8 0, ptr %76, align 1
  %77 = load i32, ptr %46, align 4
  switch i32 %77, label %78 [
    i32 8, label %81
    i32 1, label %81
  ]

78:                                               ; preds = %51
  %79 = load i32, ptr %57, align 8
  %80 = and i32 %79, 536868864
  %.not = icmp eq i32 %80, 0
  br i1 %.not, label %83, label %81

81:                                               ; preds = %51, %51, %78
  %82 = or i8 %60, -128
  store i8 %82, ptr %56, align 1
  br label %83

83:                                               ; preds = %81, %78
  %84 = getelementptr i8, ptr %56, i64 8
  %85 = getelementptr inbounds nuw i8, ptr %6, i64 29
  %86 = load i8, ptr %40, align 4
  %87 = zext i8 %86 to i64
  call void @llvm.memcpy.p0.p0.i64(ptr noundef align 1 %84, ptr noundef nonnull align 1 %85, i64 noundef range(i64 0, 256) %87, i1 noundef false) #10
  br label %parseLogLine.exit

parseLogLine.exit:                                ; preds = %24, %83, %9
  %.0 = phi i1 [ false, %9 ], [ true, %83 ], [ false, %24 ]
  call void @llvm.lifetime.end.p0(i64 40, ptr nonnull %6) #10
  call void @llvm.lifetime.end.p0(i64 200, ptr nonnull %5) #10
  ret i1 %.0
}